; Function Attrs: mustprogress uwtable
define noundef ptr @_ZNK11UatDelegate12indexToFieldERK11QModelIndex(ptr nocapture noundef nonnull readnone align 8 dereferenceable(16) %0, ptr noundef nonnull align 8 dereferenceable(24) %1) local_unnamed_addr #0 align 2 personality ptr @__gxx_personality_v0 {
  %3 = alloca %class.QVariant, align 8
  %4 = getelementptr inbounds i8, ptr %1, i64 16
  %5 = load ptr, ptr %4, align 8
  %6 = load ptr, ptr %5, align 8
  %7 = getelementptr inbounds i8, ptr %6, i64 144
  %8 = load ptr, ptr %7, align 8
  call void %8(ptr dead_on_unwind nonnull writable sret(%class.QVariant) align 8 %3, ptr noundef nonnull align 8 dereferenceable(16) %5, ptr noundef nonnull align 8 dereferenceable(24) %1, i32 noundef 256)
  %9 = invoke noundef ptr @_Z13qvariant_castIPvET_RK8QVariant(ptr noundef nonnull align 8 dereferenceable(32) %3)
          to label %_ZNK8QVariant5valueIPvEET_v.exit unwind label %10

_ZNK8QVariant5valueIPvEET_v.exit:                 ; preds = %2
  call void @_ZN8QVariantD1Ev(ptr noundef nonnull align 8 dereferenceable(32) %3) #9
  ret ptr %9

10:                                               ; preds = %2
  %11 = landingpad { ptr, i32 }
          cleanup
  call void @_ZN8QVariantD1Ev(ptr noundef nonnull align 8 dereferenceable(32) %3) #9
  resume { ptr, i32 } %11
}